target datalayout = "e-m:e-p270:32:32-p271:32:32-p272:64:64-i64:64-i128:128-f80:128-n8:16:32:64-S128"
target triple = "x86_64-pc-linux-gnu"

%struct.AVFilterContext = type { ptr, ptr, ptr, ptr, ptr, i32, ptr, ptr, i32, ptr, ptr, i32, i32, ptr, ptr, ptr, ptr, i32, ptr, i32, i32 }
%struct.VAAPIVPPContext = type { ptr, ptr, ptr, i32, i32, i32, ptr, ptr, %struct._VARectangle, i32, i32, i32, [10 x i32], i32, i32, ptr, ptr }
%struct._VARectangle = type { i16, i16, i16, i16 }
%struct.AVFilterLink = type { ptr, ptr, ptr, ptr, i32, i32, i32, i32, %struct.AVRational, i32, i32, i32, %struct.AVChannelLayout, %struct.AVRational, ptr, i32, %struct.AVFilterFormatsConfig, %struct.AVFilterFormatsConfig }
%struct.AVChannelLayout = type { i32, i32, %union.anon.1, ptr }
%union.anon.1 = type { i64 }
%struct.AVRational = type { i32, i32 }
%struct.AVFilterFormatsConfig = type { ptr, ptr, ptr, ptr, ptr }
%struct.DeintVAAPIContext = type { %struct.VAAPIVPPContext, i32, i32, i32, [5 x %struct._VAProcFilterCapDeinterlacing], i32, %struct._VAProcPipelineCaps, i32, i32, [8 x ptr], i32, i32, i32 }
%struct._VAProcFilterCapDeinterlacing = type { i32, [4 x i32] }
%struct._VAProcPipelineCaps = type { i32, i32, i32, i32, ptr, i32, ptr, i32, i32, i32, i32, i32, i32, ptr, i32, ptr, i32, i32, i32, i32, i32, i32, i32, i32, [14 x i32] }
%struct.FilterLink = type { %struct.AVFilterLink, ptr, i64, i64, i32, i32, i64, i64, i64, i64, %struct.AVRational, ptr }

; Function Attrs: inlinehint nounwind uwtable
define internal ptr @ff_filter_link(ptr noundef %0) #4 {
  %2 = alloca ptr, align 8
  store ptr %0, ptr %2, align 8, !tbaa !32
  %3 = load ptr, ptr %2, align 8, !tbaa !32
  ret ptr %3
}

; Function Attrs: nounwind uwtable
define internal i32 @deint_vaapi_config_output(ptr noundef %0) #2 {
  %2 = alloca i32, align 4
  %3 = alloca ptr, align 8
  %4 = alloca ptr, align 8
  %5 = alloca ptr, align 8
  %6 = alloca ptr, align 8
  %7 = alloca ptr, align 8
  %8 = alloca ptr, align 8
  %9 = alloca i32, align 4
  %10 = alloca i32, align 4
  %11 = alloca %struct.AVRational, align 4
  %12 = alloca %struct.AVRational, align 4
  %13 = alloca %struct.AVRational, align 4
  %14 = alloca %struct.AVRational, align 4
  store ptr %0, ptr %3, align 8, !tbaa !32
  call void @llvm.lifetime.start.p0(i64 8, ptr %4) #7
  %15 = load ptr, ptr %3, align 8, !tbaa !32
  %16 = call ptr @ff_filter_link(ptr noundef %15)
  store ptr %16, ptr %4, align 8, !tbaa !101
  call void @llvm.lifetime.start.p0(i64 8, ptr %5) #7
  %17 = load ptr, ptr %3, align 8, !tbaa !32
  %18 = getelementptr inbounds nuw %struct.AVFilterLink, ptr %17, i32 0, i32 0
  %19 = load ptr, ptr %18, align 8, !tbaa !98
  %20 = getelementptr inbounds nuw %struct.AVFilterContext, ptr %19, i32 0, i32 4
  %21 = load ptr, ptr %20, align 8, !tbaa !99
  %22 = getelementptr inbounds ptr, ptr %21, i64 0
  %23 = load ptr, ptr %22, align 8, !tbaa !32
  store ptr %23, ptr %5, align 8, !tbaa !32
  call void @llvm.lifetime.start.p0(i64 8, ptr %6) #7
  %24 = load ptr, ptr %5, align 8, !tbaa !32
  %25 = call ptr @ff_filter_link(ptr noundef %24)
  store ptr %25, ptr %6, align 8, !tbaa !101
  call void @llvm.lifetime.start.p0(i64 8, ptr %7) #7
  %26 = load ptr, ptr %3, align 8, !tbaa !32
  %27 = getelementptr inbounds nuw %struct.AVFilterLink, ptr %26, i32 0, i32 0
  %28 = load ptr, ptr %27, align 8, !tbaa !98
  store ptr %28, ptr %7, align 8, !tbaa !4
  call void @llvm.lifetime.start.p0(i64 8, ptr %8) #7
  %29 = load ptr, ptr %7, align 8, !tbaa !4
  %30 = getelementptr inbounds nuw %struct.AVFilterContext, ptr %29, i32 0, i32 9
  %31 = load ptr, ptr %30, align 8, !tbaa !9
  store ptr %31, ptr %8, align 8, !tbaa !45
  call void @llvm.lifetime.start.p0(i64 4, ptr %9) #7
  %32 = load ptr, ptr %3, align 8, !tbaa !32
  %33 = call i32 @ff_vaapi_vpp_config_output(ptr noundef %32)
  store i32 %33, ptr %9, align 4, !tbaa !62
  %34 = load i32, ptr %9, align 4, !tbaa !62
  %35 = icmp slt i32 %34, 0
  br i1 %35, label %36, label %38

36:                                               ; preds = %1
  %37 = load i32, ptr %9, align 4, !tbaa !62
  store i32 %37, ptr %2, align 4
  store i32 1, ptr %10, align 4
  br label %63

38:                                               ; preds = %1
  %39 = load ptr, ptr %3, align 8, !tbaa !32
  %40 = getelementptr inbounds nuw %struct.AVFilterLink, ptr %39, i32 0, i32 13
  call void @llvm.lifetime.start.p0(i64 8, ptr %11) #7
  %41 = load ptr, ptr %5, align 8, !tbaa !32
  %42 = getelementptr inbounds nuw %struct.AVFilterLink, ptr %41, i32 0, i32 13
  %43 = getelementptr inbounds nuw %struct.AVRational, ptr %12, i32 0, i32 0
  store i32 1, ptr %43, align 4, !tbaa !103
  %44 = getelementptr inbounds nuw %struct.AVRational, ptr %12, i32 0, i32 1
  %45 = load ptr, ptr %8, align 8, !tbaa !45
  %46 = getelementptr inbounds nuw %struct.DeintVAAPIContext, ptr %45, i32 0, i32 2
  %47 = load i32, ptr %46, align 4, !tbaa !72
  store i32 %47, ptr %44, align 4, !tbaa !104
  %48 = load i64, ptr %42, align 8
  %49 = load i64, ptr %12, align 4
  %50 = call i64 @av_mul_q(i64 %48, i64 %49) #8
  store i64 %50, ptr %11, align 4
  call void @llvm.memcpy.p0.p0.i64(ptr align 8 %40, ptr align 4 %11, i64 8, i1 false), !tbaa.struct !105
  call void @llvm.lifetime.end.p0(i64 8, ptr %11) #7
  %51 = load ptr, ptr %4, align 8, !tbaa !101
  %52 = getelementptr inbounds nuw %struct.FilterLink, ptr %51, i32 0, i32 10
  call void @llvm.lifetime.start.p0(i64 8, ptr %13) #7
  %53 = load ptr, ptr %6, align 8, !tbaa !101
  %54 = getelementptr inbounds nuw %struct.FilterLink, ptr %53, i32 0, i32 10
  %55 = getelementptr inbounds nuw %struct.AVRational, ptr %14, i32 0, i32 0
  %56 = load ptr, ptr %8, align 8, !tbaa !45
  %57 = getelementptr inbounds nuw %struct.DeintVAAPIContext, ptr %56, i32 0, i32 2
  %58 = load i32, ptr %57, align 4, !tbaa !72
  store i32 %58, ptr %55, align 4, !tbaa !103
  %59 = getelementptr inbounds nuw %struct.AVRational, ptr %14, i32 0, i32 1
  store i32 1, ptr %59, align 4, !tbaa !104
  %60 = load i64, ptr %54, align 8
  %61 = load i64, ptr %14, align 4
  %62 = call i64 @av_mul_q(i64 %60, i64 %61) #8
  store i64 %62, ptr %13, align 4
  call void @llvm.memcpy.p0.p0.i64(ptr align 8 %52, ptr align 4 %13, i64 8, i1 false), !tbaa.struct !105
  call void @llvm.lifetime.end.p0(i64 8, ptr %13) #7
  store i32 0, ptr %2, align 4
  store i32 1, ptr %10, align 4
  br label %63

63:                                               ; preds = %38, %36
  call void @llvm.lifetime.end.p0(i64 4, ptr %9) #7
  call void @llvm.lifetime.end.p0(i64 8, ptr %8) #7
  call void @llvm.lifetime.end.p0(i64 8, ptr %7) #7
  call void @llvm.lifetime.end.p0(i64 8, ptr %6) #7
  call void @llvm.lifetime.end.p0(i64 8, ptr %5) #7
  call void @llvm.lifetime.end.p0(i64 8, ptr %4) #7
  %64 = load i32, ptr %2, align 4
  ret i32 %64
}