; Function Attrs: nounwind uwtable
define internal range(i32 -2147483648, 1) i32 @deint_vaapi_config_output(ptr noundef %0) #2 {
  %2 = load ptr, ptr %0, align 8, !tbaa !90
  %3 = getelementptr inbounds nuw i8, ptr %2, i64 32
  %4 = load ptr, ptr %3, align 8, !tbaa !91
  %5 = load ptr, ptr %4, align 8, !tbaa !38
  %6 = getelementptr inbounds nuw i8, ptr %2, i64 72
  %7 = load ptr, ptr %6, align 8, !tbaa !4
  %8 = tail call i32 @ff_vaapi_vpp_config_output(ptr noundef nonnull %0) #6
  %9 = icmp slt i32 %8, 0
  br i1 %9, label %22, label %10

10:                                               ; preds = %1
  %11 = getelementptr inbounds nuw i8, ptr %0, i64 96
  %12 = getelementptr inbounds nuw i8, ptr %5, i64 96
  %13 = getelementptr inbounds nuw i8, ptr %7, i64 148
  %14 = load i32, ptr %13, align 4, !tbaa !66
  %15 = load i64, ptr %12, align 8
  %.sroa.23.0.insert.ext = zext i32 %14 to i64
  %.sroa.23.0.insert.shift = shl nuw i64 %.sroa.23.0.insert.ext, 32
  %.sroa.02.0.insert.insert = or disjoint i64 %.sroa.23.0.insert.shift, 1
  %16 = tail call i64 @av_mul_q(i64 %15, i64 %.sroa.02.0.insert.insert) #7
  store i64 %16, ptr %11, align 8
  %17 = getelementptr inbounds nuw i8, ptr %0, i64 264
  %18 = getelementptr inbounds nuw i8, ptr %5, i64 264
  %19 = load i32, ptr %13, align 4, !tbaa !66
  %20 = load i64, ptr %18, align 8
  %.sroa.0.0.insert.ext = zext i32 %19 to i64
  %.sroa.0.0.insert.insert = or disjoint i64 %.sroa.0.0.insert.ext, 4294967296
  %21 = tail call i64 @av_mul_q(i64 %20, i64 %.sroa.0.0.insert.insert) #7
  store i64 %21, ptr %17, align 8
  br label %22

22:                                               ; preds = %1, %10
  %.0 = phi i32 [ 0, %10 ], [ %8, %1 ]
  ret i32 %.0
}